(iCrypto.PublicKey.RSA
_RSAobj
p1
(dp2
S'e'
L65537L
sS'n'
L119775578387089388539710767798877562331898430083312275973261929651984109339976653160072576314292152529088161619157104270697193300351583586365897888715338719179008663693600673324693698345241966608964335590969869058077210150433887438437317395120234664463492397246887764847317360391268325012691374629447233547979L
sb.