(iCrypto.PublicKey.RSA
_RSAobj
p1
(dp2
S'e'
L65537L
sS'd'
L2216221216438448642144257196313970752428199651784716464899982228127656846885541735781034796542916146149654426476089101819206634241786853603843052021737829949076155195893938207440469610252516470389869805381252046587902578241089923773391068436979964602572486358205390855214314466739162199312594223544059315393L
sS'n'
L135996713353676599869108786399652341949332322639527118876545070491387871511552199192773106236922374035777061936295366541128600363580510322692005711936921522942820839612565807344536458273910039293874615452761699961496323157546960284611725975352556935715545372363058980668819911041332525245985850069383021612329L
sS'q'
L13321313693638928339341176186087336702070039332745265369559364205181418271324393771688772201474833429672362962719671948069894069457075034546934189499992989L
sS'p'
L10208956600024853733639103664651817558272579760764358581921578399558351244826943862102915228176089238323167037552683968725785198954822309460786497814360061L
sS'u'
L5721549299650485811048877760170055610888718125307711456016481264434794772799519736389468374894950759252986145627636604285227022970497396322768140349756540L
sb.