(iCrypto.PublicKey.RSA
_RSAobj
p1
(dp2
S'e'
L65537L
sS'n'
L135996713353676599869108786399652341949332322639527118876545070491387871511552199192773106236922374035777061936295366541128600363580510322692005711936921522942820839612565807344536458273910039293874615452761699961496323157546960284611725975352556935715545372363058980668819911041332525245985850069383021612329L
sb.